; Function Attrs: nounwind uwtable
define ptr @l_Lean_Json_escape(ptr noundef %0, ptr noundef %1) local_unnamed_addr #0 {
  %3 = tail call zeroext i8 @l___private_Lean_Data_Json_Printer_0__Lean_Json_needEscape_go(ptr noundef %0, ptr noundef nonnull inttoptr (i64 1 to ptr))
  %4 = icmp eq i8 %3, 0
  br i1 %4, label %5, label %lean_dec.exit

5:                                                ; preds = %2
  %6 = tail call ptr @lean_string_append(ptr noundef %1, ptr noundef %0) #3
  br label %12

lean_dec.exit:                                    ; preds = %2
  %7 = getelementptr i8, ptr %0, i64 8
  %.val = load i64, ptr %7, align 8, !tbaa !12
  %8 = shl i64 %.val, 1
  %9 = add i64 %8, -1
  %10 = inttoptr i64 %9 to ptr
  %11 = tail call ptr @l_String_foldlAux___at_Lean_Json_escape___spec__1(ptr noundef %0, ptr noundef nonnull %10, ptr noundef nonnull inttoptr (i64 1 to ptr), ptr noundef %1)
  br label %12

12:                                               ; preds = %lean_dec.exit, %5
  %.0 = phi ptr [ %6, %5 ], [ %11, %lean_dec.exit ]
  ret ptr %.0
}